target datalayout = "e-m:e-p270:32:32-p271:32:32-p272:64:64-i64:64-i128:128-f80:128-n8:16:32:64-S128"
target triple = "x86_64-pc-linux-gnu"

%struct.CbsP_Par_t_ = type { i32, i32, i32, i32, i32, i32, i32, i32, i32, i32, i32, i32, i32, i32, i32, i32, i32, i32, i32, i32, i32, i32, i32, i32, i64, i64, i64, i64, i64, i64, i64, i64, i64, i32, i32, i32 }
%struct.CbsP_Man_t_ = type { %struct.CbsP_Par_t_, ptr, %struct.CbsP_Que_t_, %struct.CbsP_Que_t_, %struct.CbsP_Que_t_, ptr, ptr, ptr, ptr, ptr, i32, i32, i32, i32, i32, i32, i32, i64, i64, i64, i64 }
%struct.CbsP_Que_t_ = type { i32, i32, i32, ptr }
%struct.Vec_Int_t_ = type { i32, i32, ptr }
%struct.Gia_Man_t_ = type { ptr, ptr, i32, i32, i32, i32, ptr, ptr, i32, i32, i32, ptr, ptr, %struct.Vec_Int_t_, %struct.Vec_Int_t_, i32, i32, i32, %struct.Vec_Int_t_, ptr, ptr, ptr, i32, i32, i32, i32, ptr, ptr, ptr, ptr, ptr, i32, i32, ptr, i32, ptr, ptr, ptr, ptr, ptr, ptr, ptr, ptr, ptr, ptr, ptr, ptr, ptr, ptr, ptr, ptr, ptr, ptr, %struct.Vec_Int_t_, %struct.Vec_Int_t_, ptr, ptr, ptr, ptr, ptr, ptr, ptr, ptr, ptr, ptr, ptr, ptr, ptr, ptr, ptr, ptr, ptr, ptr, ptr, ptr, ptr, i32, float, float, ptr, ptr, i32, ptr, ptr, ptr, ptr, ptr, ptr, ptr, ptr, ptr, ptr, ptr, ptr, ptr, ptr, ptr, i64, i64, ptr, ptr, i32, i32, i32, i32, i32, i32, i32, i32, i32, i32, i32, i32, ptr, ptr, ptr, ptr, ptr, ptr, ptr, ptr, i32, i32, i32, ptr, i32, i32, ptr, ptr, ptr, ptr, ptr, ptr, i32, i32, ptr, %struct.Vec_Int_t_, %struct.Vec_Int_t_, %struct.Vec_Int_t_, ptr, ptr, ptr, i32, i32, i32, i32, ptr, ptr, ptr, ptr, ptr }

; Function Attrs: inlinehint nounwind uwtable
define internal i32 @Gia_ObjId(ptr noundef %0, ptr noundef %1) #6 {
  %3 = alloca ptr, align 8
  %4 = alloca ptr, align 8
  store ptr %0, ptr %3, align 8, !tbaa !51
  store ptr %1, ptr %4, align 8, !tbaa !95
  %5 = load ptr, ptr %4, align 8, !tbaa !95
  %6 = load ptr, ptr %3, align 8, !tbaa !51
  %7 = getelementptr inbounds nuw %struct.Gia_Man_t_, ptr %6, i32 0, i32 6
  %8 = load ptr, ptr %7, align 8, !tbaa !162
  %9 = ptrtoint ptr %5 to i64
  %10 = ptrtoint ptr %8 to i64
  %11 = sub i64 %9, %10
  %12 = sdiv exact i64 %11, 12
  %13 = trunc i64 %12 to i32
  ret i32 %13
}

; Function Attrs: inlinehint nounwind uwtable
define internal void @Vec_IntShrink(ptr noundef %0, i32 noundef %1) #6 {
  %3 = alloca ptr, align 8
  %4 = alloca i32, align 4
  store ptr %0, ptr %3, align 8, !tbaa !65
  store i32 %1, ptr %4, align 4, !tbaa !38
  %5 = load i32, ptr %4, align 4, !tbaa !38
  %6 = load ptr, ptr %3, align 8, !tbaa !65
  %7 = getelementptr inbounds nuw %struct.Vec_Int_t_, ptr %6, i32 0, i32 1
  store i32 %5, ptr %7, align 4, !tbaa !66
  ret void
}

; Function Attrs: inlinehint nounwind uwtable
define internal void @CbsP_VarUnassign(ptr noundef %0, ptr noundef %1) #6 {
  %3 = alloca ptr, align 8
  %4 = alloca ptr, align 8
  store ptr %0, ptr %3, align 8, !tbaa !36
  store ptr %1, ptr %4, align 8, !tbaa !95
  %5 = load ptr, ptr %4, align 8, !tbaa !95
  %6 = load i64, ptr %5, align 4
  %7 = and i64 %6, -1073741825
  %8 = or i64 %7, 0
  store i64 %8, ptr %5, align 4
  %9 = load ptr, ptr %4, align 8, !tbaa !95
  %10 = load i64, ptr %9, align 4
  %11 = and i64 %10, -4611686018427387905
  %12 = or i64 %11, 0
  store i64 %12, ptr %9, align 4
  %13 = load ptr, ptr %3, align 8, !tbaa !36
  %14 = getelementptr inbounds nuw %struct.CbsP_Man_t_, ptr %13, i32 0, i32 7
  %15 = load ptr, ptr %14, align 8, !tbaa !64
  %16 = getelementptr inbounds nuw %struct.Vec_Int_t_, ptr %15, i32 0, i32 2
  %17 = load ptr, ptr %16, align 8, !tbaa !70
  %18 = load ptr, ptr %3, align 8, !tbaa !36
  %19 = getelementptr inbounds nuw %struct.CbsP_Man_t_, ptr %18, i32 0, i32 1
  %20 = load ptr, ptr %19, align 8, !tbaa !63
  %21 = load ptr, ptr %4, align 8, !tbaa !95
  %22 = call i32 @Gia_ObjId(ptr noundef %20, ptr noundef %21)
  %23 = sext i32 %22 to i64
  %24 = getelementptr inbounds i32, ptr %17, i64 %23
  store i32 -1, ptr %24, align 4, !tbaa !38
  ret void
}

; Function Attrs: inlinehint nounwind uwtable
define internal void @CbsP_ManCancelUntil(ptr noundef %0, i32 noundef %1) #6 {
  %3 = alloca ptr, align 8
  %4 = alloca i32, align 4
  %5 = alloca ptr, align 8
  %6 = alloca i32, align 4
  store ptr %0, ptr %3, align 8, !tbaa !36
  store i32 %1, ptr %4, align 4, !tbaa !38
  call void @llvm.lifetime.start.p0(i64 8, ptr %5) #11
  call void @llvm.lifetime.start.p0(i64 4, ptr %6) #11
  %7 = load i32, ptr %4, align 4, !tbaa !38
  %8 = load ptr, ptr %3, align 8, !tbaa !36
  %9 = getelementptr inbounds nuw %struct.CbsP_Man_t_, ptr %8, i32 0, i32 2
  %10 = getelementptr inbounds nuw %struct.CbsP_Que_t_, ptr %9, i32 0, i32 0
  store i32 %7, ptr %10, align 8, !tbaa !93
  %11 = load ptr, ptr %3, align 8, !tbaa !36
  %12 = getelementptr inbounds nuw %struct.CbsP_Man_t_, ptr %11, i32 0, i32 2
  %13 = getelementptr inbounds nuw %struct.CbsP_Que_t_, ptr %12, i32 0, i32 0
  %14 = load i32, ptr %13, align 8, !tbaa !93
  store i32 %14, ptr %6, align 4, !tbaa !38
  br label %15

15:                                               ; preds = %37, %2
  %16 = load i32, ptr %6, align 4, !tbaa !38
  %17 = load ptr, ptr %3, align 8, !tbaa !36
  %18 = getelementptr inbounds nuw %struct.CbsP_Man_t_, ptr %17, i32 0, i32 2
  %19 = getelementptr inbounds nuw %struct.CbsP_Que_t_, ptr %18, i32 0, i32 1
  %20 = load i32, ptr %19, align 4, !tbaa !94
  %21 = icmp slt i32 %16, %20
  br i1 %21, label %22, label %32

22:                                               ; preds = %15
  %23 = load ptr, ptr %3, align 8, !tbaa !36
  %24 = getelementptr inbounds nuw %struct.CbsP_Man_t_, ptr %23, i32 0, i32 2
  %25 = getelementptr inbounds nuw %struct.CbsP_Que_t_, ptr %24, i32 0, i32 3
  %26 = load ptr, ptr %25, align 8, !tbaa !55
  %27 = load i32, ptr %6, align 4, !tbaa !38
  %28 = sext i32 %27 to i64
  %29 = getelementptr inbounds ptr, ptr %26, i64 %28
  %30 = load ptr, ptr %29, align 8, !tbaa !95
  store ptr %30, ptr %5, align 8, !tbaa !95
  %31 = icmp ne ptr %30, null
  br label %32

32:                                               ; preds = %22, %15
  %33 = phi i1 [ false, %15 ], [ %31, %22 ]
  br i1 %33, label %34, label %40

34:                                               ; preds = %32
  %35 = load ptr, ptr %3, align 8, !tbaa !36
  %36 = load ptr, ptr %5, align 8, !tbaa !95
  call void @CbsP_VarUnassign(ptr noundef %35, ptr noundef %36)
  br label %37

37:                                               ; preds = %34
  %38 = load i32, ptr %6, align 4, !tbaa !38
  %39 = add nsw i32 %38, 1
  store i32 %39, ptr %6, align 4, !tbaa !38
  br label %15, !llvm.loop !122

40:                                               ; preds = %32
  %41 = load i32, ptr %4, align 4, !tbaa !38
  %42 = load ptr, ptr %3, align 8, !tbaa !36
  %43 = getelementptr inbounds nuw %struct.CbsP_Man_t_, ptr %42, i32 0, i32 2
  %44 = getelementptr inbounds nuw %struct.CbsP_Que_t_, ptr %43, i32 0, i32 1
  store i32 %41, ptr %44, align 4, !tbaa !94
  %45 = load ptr, ptr %3, align 8, !tbaa !36
  %46 = getelementptr inbounds nuw %struct.CbsP_Man_t_, ptr %45, i32 0, i32 6
  %47 = load ptr, ptr %46, align 8, !tbaa !61
  %48 = load i32, ptr %4, align 4, !tbaa !38
  %49 = mul nsw i32 3, %48
  call void @Vec_IntShrink(ptr noundef %47, i32 noundef %49)
  call void @llvm.lifetime.end.p0(i64 4, ptr %6) #11
  call void @llvm.lifetime.end.p0(i64 8, ptr %5) #11
  ret void
}