; Function Attrs: inlinehint nofree norecurse nosync nounwind memory(readwrite, inaccessiblemem: none) uwtable
define internal fastcc void @CbsP_ManCancelUntil(ptr noundef captures(none) initializes((192, 196)) %0, i32 noundef %1) unnamed_addr #14 {
  %3 = getelementptr inbounds nuw i8, ptr %0, i64 192
  store i32 %1, ptr %3, align 8, !tbaa !82
  %4 = getelementptr inbounds nuw i8, ptr %0, i64 208
  %5 = getelementptr inbounds nuw i8, ptr %0, i64 196
  %6 = load i32, ptr %5, align 4, !tbaa !83
  %7 = icmp slt i32 %1, %6
  br i1 %7, label %.lr.ph, label %.critedge

.lr.ph:                                           ; preds = %2
  %8 = getelementptr inbounds nuw i8, ptr %0, i64 280
  %9 = getelementptr inbounds nuw i8, ptr %0, i64 184
  %10 = sext i32 %1 to i64
  br label %11

11:                                               ; preds = %.lr.ph, %15
  %indvars.iv = phi i64 [ %10, %.lr.ph ], [ %indvars.iv.next, %15 ]
  %12 = load ptr, ptr %4, align 8, !tbaa !47
  %13 = getelementptr inbounds ptr, ptr %12, i64 %indvars.iv
  %14 = load ptr, ptr %13, align 8, !tbaa !84
  %.not = icmp eq ptr %14, null
  br i1 %.not, label %.critedge, label %15

15:                                               ; preds = %11
  %16 = load i64, ptr %14, align 4
  %17 = and i64 %16, -4611686019501129729
  store i64 %17, ptr %14, align 4
  %18 = load ptr, ptr %8, align 8, !tbaa !80
  %19 = getelementptr inbounds nuw i8, ptr %18, i64 8
  %20 = load ptr, ptr %19, align 8, !tbaa !56
  %21 = load ptr, ptr %9, align 8, !tbaa !64
  %22 = getelementptr i8, ptr %21, i64 32
  %.val.i = load ptr, ptr %22, align 8, !tbaa !109
  %23 = ptrtoint ptr %14 to i64
  %24 = ptrtoint ptr %.val.i to i64
  %25 = sub i64 %23, %24
  %26 = sdiv exact i64 %25, 12
  %sext.i = shl i64 %26, 32
  %27 = ashr exact i64 %sext.i, 30
  %28 = getelementptr inbounds i8, ptr %20, i64 %27
  store i32 -1, ptr %28, align 4, !tbaa !81
  %indvars.iv.next = add nsw i64 %indvars.iv, 1
  %29 = load i32, ptr %5, align 4, !tbaa !83
  %30 = sext i32 %29 to i64
  %31 = icmp slt i64 %indvars.iv.next, %30
  br i1 %31, label %11, label %.critedge, !llvm.loop !112

.critedge:                                        ; preds = %11, %15, %2
  store i32 %1, ptr %5, align 4, !tbaa !83
  %32 = getelementptr inbounds nuw i8, ptr %0, i64 272
  %33 = load ptr, ptr %32, align 8, !tbaa !58
  %34 = mul nsw i32 %1, 3
  %35 = getelementptr inbounds nuw i8, ptr %33, i64 4
  store i32 %34, ptr %35, align 4, !tbaa !52
  ret void
}